target datalayout = "e-m:e-p270:32:32-p271:32:32-p272:64:64-i64:64-i128:128-f80:128-n8:16:32:64-S128"
target triple = "x86_64-pc-linux-gnu"

%struct.redisOptions = type { i32, i32, ptr, ptr, %union.anon, ptr, ptr, ptr, ptr }
%union.anon = type { %struct.anon.1 }
%struct.anon.1 = type { ptr, ptr, i32 }
%struct.timeval = type { i64, i64 }

; Function Attrs: nounwind uwtable
define ptr @redisConnectUnixWithTimeout(ptr noundef %0, i64 %1, i64 %2) #0 {
  %4 = alloca %struct.timeval, align 8
  %5 = alloca ptr, align 8
  %6 = alloca %struct.redisOptions, align 8
  %7 = getelementptr inbounds nuw { i64, i64 }, ptr %4, i32 0, i32 0
  store i64 %1, ptr %7, align 8
  %8 = getelementptr inbounds nuw { i64, i64 }, ptr %4, i32 0, i32 1
  store i64 %2, ptr %8, align 8
  store ptr %0, ptr %5, align 8, !tbaa !26
  call void @llvm.lifetime.start.p0(i64 80, ptr %6) #10
  call void @llvm.memset.p0.i64(ptr align 8 %6, i8 0, i64 80, i1 false)
  br label %9

9:                                                ; preds = %3
  %10 = getelementptr inbounds nuw %struct.redisOptions, ptr %6, i32 0, i32 0
  store i32 1, ptr %10, align 8, !tbaa !76
  %11 = load ptr, ptr %5, align 8, !tbaa !26
  %12 = getelementptr inbounds nuw %struct.redisOptions, ptr %6, i32 0, i32 4
  store ptr %11, ptr %12, align 8, !tbaa !30
  br label %13

13:                                               ; preds = %9
  br label %14

14:                                               ; preds = %13
  %15 = getelementptr inbounds nuw %struct.redisOptions, ptr %6, i32 0, i32 2
  store ptr %4, ptr %15, align 8, !tbaa !74
  %16 = call ptr @redisConnectWithOptions(ptr noundef %6)
  call void @llvm.lifetime.end.p0(i64 80, ptr %6) #10
  ret ptr %16
}