; Function Attrs: nounwind uwtable
define ptr @redisConnectUnixWithTimeout(ptr noundef %0, i64 %1, i64 %2) local_unnamed_addr #0 {
  %4 = alloca %struct.timeval, align 8
  %5 = alloca %struct.redisOptions, align 8
  store i64 %1, ptr %4, align 8
  %6 = getelementptr inbounds nuw i8, ptr %4, i64 8
  store i64 %2, ptr %6, align 8
  call void @llvm.lifetime.start.p0(i64 80, ptr nonnull %5) #13
  call void @llvm.memset.p0.i64(ptr noundef nonnull align 8 dereferenceable(80) %5, i8 0, i64 80, i1 false)
  store i32 1, ptr %5, align 8, !tbaa !68
  %7 = getelementptr inbounds nuw i8, ptr %5, i64 24
  store ptr %0, ptr %7, align 8, !tbaa !22
  %8 = getelementptr inbounds nuw i8, ptr %5, i64 8
  store ptr %4, ptr %8, align 8, !tbaa !66
  %9 = call ptr @redisConnectWithOptions(ptr noundef nonnull %5)
  call void @llvm.lifetime.end.p0(i64 80, ptr nonnull %5) #13
  ret ptr %9
}